target datalayout = "e-m:e-p270:32:32-p271:32:32-p272:64:64-i64:64-i128:128-f80:128-n8:16:32:64-S128"
target triple = "x86_64-pc-linux-gnu"

%struct.H5FD_sec2_t = type { %struct.H5FD_t, i32, i64, i64, i8, [1024 x i8], i64, i64, i8 }
%struct.H5FD_t = type { i64, ptr, i64, i32, i64, i64, i64, i64, i64, i8 }

@.str.4 = private unnamed_addr constant [102 x i8] c"generated/home/dtcxzyw/WorkSpace/Projects/compilers/llvm-opt-benchmark/bench/hdf5/hdf5/src/H5FDsec2.c\00", align 1
@H5E_ARGS_g = external global i64, align 8
@H5E_BADVALUE_g = external global i64, align 8
@H5E_OVERFLOW_g = external global i64, align 8
@H5E_IO_g = external global i64, align 8
@.str.22 = private unnamed_addr constant [28 x i8] c"addr undefined, addr = %llu\00", align 1
@__func__.H5FD__sec2_write = private unnamed_addr constant [17 x i8] c"H5FD__sec2_write\00", align 1
@.str.25 = private unnamed_addr constant [40 x i8] c"addr overflow, addr = %llu, size = %llu\00", align 1
@H5E_WRITEERROR_g = external global i64, align 8
@.str.26 = private unnamed_addr constant [212 x i8] c"file write failed: time = %s, filename = '%s', file descriptor = %d, errno = %d, error message = '%s', buf = %p, total write size = %llu, bytes this sub-write = %llu, bytes actually written = %llu, offset = %llu\00", align 1

; Function Attrs: nounwind uwtable
define internal i32 @H5FD__sec2_write(ptr noundef %0, i32 noundef %1, i64 noundef %2, i64 noundef %3, i64 noundef %4, ptr noundef %5) #0 {
  %7 = alloca ptr, align 8
  %8 = alloca i32, align 4
  %9 = alloca i64, align 8
  %10 = alloca i64, align 8
  %11 = alloca i64, align 8
  %12 = alloca ptr, align 8
  %13 = alloca ptr, align 8
  %14 = alloca i64, align 8
  %15 = alloca i32, align 4
  %16 = alloca i8, align 1
  %17 = alloca i64, align 8
  %18 = alloca i64, align 8
  %19 = alloca i32, align 4
  %20 = alloca i64, align 8
  store ptr %0, ptr %7, align 8
  store i32 %1, ptr %8, align 4
  store i64 %2, ptr %9, align 8
  store i64 %3, ptr %10, align 8
  store i64 %4, ptr %11, align 8
  store ptr %5, ptr %12, align 8
  %21 = load ptr, ptr %7, align 8
  store ptr %21, ptr %13, align 8
  %22 = load i64, ptr %10, align 8
  store i64 %22, ptr %14, align 8
  store i32 0, ptr %15, align 4
  store i8 0, ptr %16, align 1
  %23 = load i64, ptr %10, align 8
  %24 = icmp ne i64 %23, -1
  br i1 %24, label %41, label %25

25:                                               ; preds = %6
  br label %26

26:                                               ; preds = %25
  br label %27

27:                                               ; preds = %26
  br label %28

28:                                               ; preds = %27
  %29 = load i64, ptr @H5E_ARGS_g, align 8
  %30 = load i64, ptr @H5E_BADVALUE_g, align 8
  %31 = load i64, ptr %10, align 8
  %32 = call i32 (ptr, ptr, i32, i64, i64, ptr, ...) @H5E_printf_stack(ptr noundef @.str.4, ptr noundef @__func__.H5FD__sec2_write, i32 noundef 772, i64 noundef %29, i64 noundef %30, ptr noundef @.str.22, i64 noundef %31)
  br label %33

33:                                               ; preds = %28
  store i8 1, ptr %16, align 1
  %34 = load i8, ptr %16, align 1
  %35 = trunc i8 %34 to i1
  %36 = zext i1 %35 to i8
  store i8 %36, ptr %16, align 1
  br label %37

37:                                               ; preds = %33
  br label %38

38:                                               ; preds = %37
  store i32 -1, ptr %15, align 4
  br label %176

39:                                               ; No predecessors!
  br label %40

40:                                               ; preds = %39
  br label %41

41:                                               ; preds = %40, %6
  %42 = load i64, ptr %10, align 8
  %43 = icmp eq i64 -1, %42
  br i1 %43, label %63, label %44

44:                                               ; preds = %41
  %45 = load i64, ptr %10, align 8
  %46 = and i64 %45, -9223372036854775808
  %47 = icmp ne i64 %46, 0
  br i1 %47, label %63, label %48

48:                                               ; preds = %44
  %49 = load i64, ptr %11, align 8
  %50 = and i64 %49, -9223372036854775808
  %51 = icmp ne i64 %50, 0
  br i1 %51, label %63, label %52

52:                                               ; preds = %48
  %53 = load i64, ptr %10, align 8
  %54 = load i64, ptr %11, align 8
  %55 = add i64 %53, %54
  %56 = icmp eq i64 -1, %55
  br i1 %56, label %63, label %57

57:                                               ; preds = %52
  %58 = load i64, ptr %10, align 8
  %59 = load i64, ptr %11, align 8
  %60 = add i64 %58, %59
  %61 = load i64, ptr %10, align 8
  %62 = icmp slt i64 %60, %61
  br i1 %62, label %63, label %80

63:                                               ; preds = %57, %52, %48, %44, %41
  br label %64

64:                                               ; preds = %63
  br label %65

65:                                               ; preds = %64
  br label %66

66:                                               ; preds = %65
  %67 = load i64, ptr @H5E_ARGS_g, align 8
  %68 = load i64, ptr @H5E_OVERFLOW_g, align 8
  %69 = load i64, ptr %10, align 8
  %70 = load i64, ptr %11, align 8
  %71 = call i32 (ptr, ptr, i32, i64, i64, ptr, ...) @H5E_printf_stack(ptr noundef @.str.4, ptr noundef @__func__.H5FD__sec2_write, i32 noundef 775, i64 noundef %67, i64 noundef %68, ptr noundef @.str.25, i64 noundef %69, i64 noundef %70)
  br label %72

72:                                               ; preds = %66
  store i8 1, ptr %16, align 1
  %73 = load i8, ptr %16, align 1
  %74 = trunc i8 %73 to i1
  %75 = zext i1 %74 to i8
  store i8 %75, ptr %16, align 1
  br label %76

76:                                               ; preds = %72
  br label %77

77:                                               ; preds = %76
  store i32 -1, ptr %15, align 4
  br label %176

78:                                               ; No predecessors!
  br label %79

79:                                               ; preds = %78
  br label %80

80:                                               ; preds = %79, %57
  br label %81

81:                                               ; preds = %155, %80
  %82 = load i64, ptr %11, align 8
  %83 = icmp ugt i64 %82, 0
  br i1 %83, label %84, label %165

84:                                               ; preds = %81
  store i64 0, ptr %17, align 8
  store i64 -1, ptr %18, align 8
  %85 = load i64, ptr %11, align 8
  %86 = icmp ugt i64 %85, 9223372036854775807
  br i1 %86, label %87, label %88

87:                                               ; preds = %84
  store i64 9223372036854775807, ptr %17, align 8
  br label %90

88:                                               ; preds = %84
  %89 = load i64, ptr %11, align 8
  store i64 %89, ptr %17, align 8
  br label %90

90:                                               ; preds = %88, %87
  br label %91

91:                                               ; preds = %113, %90
  %92 = load ptr, ptr %13, align 8
  %93 = getelementptr inbounds %struct.H5FD_sec2_t, ptr %92, i32 0, i32 1
  %94 = load i32, ptr %93, align 8
  %95 = load ptr, ptr %12, align 8
  %96 = load i64, ptr %17, align 8
  %97 = load i64, ptr %14, align 8
  %98 = call i64 @pwrite64(i32 noundef %94, ptr noundef %95, i64 noundef %96, i64 noundef %97)
  store i64 %98, ptr %18, align 8
  %99 = load i64, ptr %18, align 8
  %100 = icmp sgt i64 %99, 0
  br i1 %100, label %101, label %105

101:                                              ; preds = %91
  %102 = load i64, ptr %18, align 8
  %103 = load i64, ptr %14, align 8
  %104 = add nsw i64 %103, %102
  store i64 %104, ptr %14, align 8
  br label %105

105:                                              ; preds = %101, %91
  br label %106

106:                                              ; preds = %105
  %107 = load i64, ptr %18, align 8
  %108 = icmp eq i64 -1, %107
  br i1 %108, label %109, label %113

109:                                              ; preds = %106
  %110 = call ptr @__errno_location() #8
  %111 = load i32, ptr %110, align 4
  %112 = icmp eq i32 4, %111
  br label %113

113:                                              ; preds = %109, %106
  %114 = phi i1 [ false, %106 ], [ %112, %109 ]
  br i1 %114, label %91, label %115

115:                                              ; preds = %113
  %116 = load i64, ptr %18, align 8
  %117 = icmp eq i64 -1, %116
  br i1 %117, label %118, label %155

118:                                              ; preds = %115
  %119 = call ptr @__errno_location() #8
  %120 = load i32, ptr %119, align 4
  store i32 %120, ptr %19, align 4
  %121 = call i64 @time(ptr noundef null) #6
  store i64 %121, ptr %20, align 8
  %122 = load ptr, ptr %13, align 8
  %123 = getelementptr inbounds %struct.H5FD_sec2_t, ptr %122, i32 0, i32 1
  %124 = load i32, ptr %123, align 8
  %125 = call i64 @lseek64(i32 noundef %124, i64 noundef 0, i32 noundef 1) #6
  store i64 %125, ptr %14, align 8
  br label %126

126:                                              ; preds = %118
  br label %127

127:                                              ; preds = %126
  br label %128

128:                                              ; preds = %127
  %129 = load i64, ptr @H5E_IO_g, align 8
  %130 = load i64, ptr @H5E_WRITEERROR_g, align 8
  %131 = call ptr @ctime(ptr noundef %20) #6
  %132 = load ptr, ptr %13, align 8
  %133 = getelementptr inbounds %struct.H5FD_sec2_t, ptr %132, i32 0, i32 5
  %134 = getelementptr inbounds [1024 x i8], ptr %133, i64 0, i64 0
  %135 = load ptr, ptr %13, align 8
  %136 = getelementptr inbounds %struct.H5FD_sec2_t, ptr %135, i32 0, i32 1
  %137 = load i32, ptr %136, align 8
  %138 = load i32, ptr %19, align 4
  %139 = load i32, ptr %19, align 4
  %140 = call ptr @strerror(i32 noundef %139) #6
  %141 = load ptr, ptr %12, align 8
  %142 = load i64, ptr %11, align 8
  %143 = load i64, ptr %17, align 8
  %144 = load i64, ptr %18, align 8
  %145 = load i64, ptr %14, align 8
  %146 = call i32 (ptr, ptr, i32, i64, i64, ptr, ...) @H5E_printf_stack(ptr noundef @.str.4, ptr noundef @__func__.H5FD__sec2_write, i32 noundef 821, i64 noundef %129, i64 noundef %130, ptr noundef @.str.26, ptr noundef %131, ptr noundef %134, i32 noundef %137, i32 noundef %138, ptr noundef %140, ptr noundef %141, i64 noundef %142, i64 noundef %143, i64 noundef %144, i64 noundef %145)
  br label %147

147:                                              ; preds = %128
  store i8 1, ptr %16, align 1
  %148 = load i8, ptr %16, align 1
  %149 = trunc i8 %148 to i1
  %150 = zext i1 %149 to i8
  store i8 %150, ptr %16, align 1
  br label %151

151:                                              ; preds = %147
  br label %152

152:                                              ; preds = %151
  store i32 -1, ptr %15, align 4
  br label %176

153:                                              ; No predecessors!
  br label %154

154:                                              ; preds = %153
  br label %155

155:                                              ; preds = %154, %115
  %156 = load i64, ptr %18, align 8
  %157 = load i64, ptr %11, align 8
  %158 = sub i64 %157, %156
  store i64 %158, ptr %11, align 8
  %159 = load i64, ptr %18, align 8
  %160 = load i64, ptr %10, align 8
  %161 = add i64 %160, %159
  store i64 %161, ptr %10, align 8
  %162 = load ptr, ptr %12, align 8
  %163 = load i64, ptr %18, align 8
  %164 = getelementptr inbounds i8, ptr %162, i64 %163
  store ptr %164, ptr %12, align 8
  br label %81

165:                                              ; preds = %81
  %166 = load i64, ptr %10, align 8
  %167 = load ptr, ptr %13, align 8
  %168 = getelementptr inbounds %struct.H5FD_sec2_t, ptr %167, i32 0, i32 3
  %169 = load i64, ptr %168, align 8
  %170 = icmp ugt i64 %166, %169
  br i1 %170, label %171, label %175

171:                                              ; preds = %165
  %172 = load i64, ptr %10, align 8
  %173 = load ptr, ptr %13, align 8
  %174 = getelementptr inbounds %struct.H5FD_sec2_t, ptr %173, i32 0, i32 3
  store i64 %172, ptr %174, align 8
  br label %175

175:                                              ; preds = %171, %165
  br label %176

176:                                              ; preds = %175, %152, %77, %38
  %177 = load i32, ptr %15, align 4
  ret i32 %177
}