; Function Attrs: nounwind uwtable
define internal range(i32 -1, 1) i32 @H5FD__sec2_write(ptr noundef %0, i32 %1, i64 %2, i64 noundef %3, i64 noundef %4, ptr noundef %5) #0 {
  %7 = alloca i64, align 8
  %.not = icmp eq i64 %3, -1
  br i1 %.not, label %8, label %12

8:                                                ; preds = %6
  %9 = load i64, ptr @H5E_ARGS_g, align 8
  %10 = load i64, ptr @H5E_BADVALUE_g, align 8
  %11 = tail call i32 (ptr, ptr, i32, i64, i64, ptr, ...) @H5E_printf_stack(ptr noundef nonnull @.str.4, ptr noundef nonnull @__func__.H5FD__sec2_write, i32 noundef 772, i64 noundef %9, i64 noundef %10, ptr noundef nonnull @.str.22, i64 noundef -1) #15
  br label %48

12:                                               ; preds = %6
  %13 = or i64 %4, %3
  %or.cond = icmp slt i64 %13, 0
  %14 = add nuw i64 %4, %3
  %15 = icmp slt i64 %14, %3
  %or.cond66 = select i1 %or.cond, i1 true, i1 %15
  br i1 %or.cond66, label %17, label %.preheader

.preheader:                                       ; preds = %12
  %.not6275 = icmp eq i64 %4, 0
  br i1 %.not6275, label %._crit_edge, label %.lr.ph

.lr.ph:                                           ; preds = %.preheader
  %16 = getelementptr inbounds i8, ptr %0, i64 80
  br label %21

17:                                               ; preds = %12
  %18 = load i64, ptr @H5E_ARGS_g, align 8
  %19 = load i64, ptr @H5E_OVERFLOW_g, align 8
  %20 = tail call i32 (ptr, ptr, i32, i64, i64, ptr, ...) @H5E_printf_stack(ptr noundef nonnull @.str.4, ptr noundef nonnull @__func__.H5FD__sec2_write, i32 noundef 775, i64 noundef %18, i64 noundef %19, ptr noundef nonnull @.str.25, i64 noundef %3, i64 noundef %4) #15
  br label %48

21:                                               ; preds = %.lr.ph, %.critedge64
  %.079 = phi i64 [ %3, %.lr.ph ], [ %42, %.critedge64 ]
  %.05178 = phi i64 [ %3, %.lr.ph ], [ %spec.select, %.critedge64 ]
  %.05277 = phi i64 [ %4, %.lr.ph ], [ %41, %.critedge64 ]
  %.05376 = phi ptr [ %5, %.lr.ph ], [ %43, %.critedge64 ]
  %..052 = tail call i64 @llvm.umin.i64(i64 %.05277, i64 9223372036854775807)
  br label %22

22:                                               ; preds = %27, %21
  %.1 = phi i64 [ %.05178, %21 ], [ %spec.select, %27 ]
  %23 = load i32, ptr %16, align 8
  %24 = tail call i64 @pwrite64(i32 noundef %23, ptr noundef %.05376, i64 noundef %..052, i64 noundef %.1) #15
  %25 = tail call i64 @llvm.smax.i64(i64 %24, i64 0)
  %spec.select = add nsw i64 %25, %.1
  %26 = icmp eq i64 %24, -1
  br i1 %26, label %27, label %.critedge64

27:                                               ; preds = %22
  %28 = tail call ptr @__errno_location() #17
  %29 = load i32, ptr %28, align 4
  %30 = icmp eq i32 %29, 4
  br i1 %30, label %22, label %.critedge

.critedge:                                        ; preds = %27
  %31 = tail call i64 @time(ptr noundef null) #15
  store i64 %31, ptr %7, align 8
  %32 = load i32, ptr %16, align 8
  %33 = tail call i64 @lseek64(i32 noundef %32, i64 noundef 0, i32 noundef 1) #15
  %34 = load i64, ptr @H5E_IO_g, align 8
  %35 = load i64, ptr @H5E_WRITEERROR_g, align 8
  %36 = call ptr @ctime(ptr noundef nonnull %7) #15
  %37 = getelementptr inbounds i8, ptr %0, i64 105
  %38 = load i32, ptr %16, align 8
  %39 = call ptr @strerror(i32 noundef %29) #15
  %40 = call i32 (ptr, ptr, i32, i64, i64, ptr, ...) @H5E_printf_stack(ptr noundef nonnull @.str.4, ptr noundef nonnull @__func__.H5FD__sec2_write, i32 noundef 821, i64 noundef %34, i64 noundef %35, ptr noundef nonnull @.str.26, ptr noundef %36, ptr noundef nonnull %37, i32 noundef %38, i32 noundef %29, ptr noundef %39, ptr noundef %.05376, i64 noundef %.05277, i64 noundef %..052, i64 noundef -1, i64 noundef %33) #15
  br label %48

.critedge64:                                      ; preds = %22
  %41 = sub i64 %.05277, %24
  %42 = add i64 %24, %.079
  %43 = getelementptr inbounds i8, ptr %.05376, i64 %24
  %.not62 = icmp eq i64 %41, 0
  br i1 %.not62, label %._crit_edge, label %21

._crit_edge:                                      ; preds = %.critedge64, %.preheader
  %.0.lcssa = phi i64 [ %3, %.preheader ], [ %42, %.critedge64 ]
  %44 = getelementptr inbounds i8, ptr %0, i64 96
  %45 = load i64, ptr %44, align 8
  %46 = icmp ugt i64 %.0.lcssa, %45
  br i1 %46, label %47, label %48

47:                                               ; preds = %._crit_edge
  store i64 %.0.lcssa, ptr %44, align 8
  br label %48

48:                                               ; preds = %._crit_edge, %47, %.critedge, %17, %8
  %.050 = phi i32 [ -1, %17 ], [ -1, %.critedge ], [ 0, %47 ], [ 0, %._crit_edge ], [ -1, %8 ]
  ret i32 %.050
}